; Function Attrs: mustprogress nofree norecurse nosync nounwind willreturn memory(readwrite, inaccessiblemem: none) uwtable
define hidden void @_Z16luaC_barrierbackP9lua_StateP8GCObjectPS2_(ptr nocapture noundef readonly %0, ptr noundef %1, ptr nocapture noundef writeonly %2) local_unnamed_addr #3 {
  %4 = getelementptr inbounds i8, ptr %0, i64 24
  %5 = load ptr, ptr %4, align 8
  %6 = getelementptr inbounds i8, ptr %1, i64 1
  %7 = load i8, ptr %6, align 1
  %8 = and i8 %7, -5
  store i8 %8, ptr %6, align 1
  %9 = getelementptr inbounds i8, ptr %5, i64 48
  %10 = load ptr, ptr %9, align 8
  store ptr %10, ptr %2, align 8
  store ptr %1, ptr %9, align 8
  ret void
}